target datalayout = "e-m:e-p270:32:32-p271:32:32-p272:64:64-i64:64-i128:128-f80:128-n8:16:32:64-S128"
target triple = "x86_64-pc-linux-gnu"

%struct.lean_object = type { i32, i32 }
%struct.lean_ctor_object = type { %struct.lean_object, [0 x ptr] }

; Function Attrs: alwaysinline nounwind uwtable
define internal zeroext i1 @lean_is_scalar(ptr noundef %0) #1 {
  %2 = alloca ptr, align 8
  store ptr %0, ptr %2, align 8, !tbaa !4
  %3 = load ptr, ptr %2, align 8, !tbaa !4
  %4 = ptrtoint ptr %3 to i64
  %5 = and i64 %4, 1
  %6 = icmp eq i64 %5, 1
  ret i1 %6
}

; Function Attrs: inlinehint nounwind uwtable
define internal ptr @lean_to_ctor(ptr noundef %0) #0 {
  %2 = alloca ptr, align 8
  store ptr %0, ptr %2, align 8, !tbaa !4
  %3 = load ptr, ptr %2, align 8, !tbaa !4
  ret ptr %3
}

; Function Attrs: alwaysinline nounwind uwtable
define internal zeroext i1 @lean_nat_eq(ptr noundef %0, ptr noundef %1) #1 {
  %3 = alloca i1, align 1
  %4 = alloca ptr, align 8
  %5 = alloca ptr, align 8
  store ptr %0, ptr %4, align 8, !tbaa !4
  store ptr %1, ptr %5, align 8, !tbaa !4
  %6 = load ptr, ptr %4, align 8, !tbaa !4
  %7 = call zeroext i1 @lean_is_scalar(ptr noundef %6)
  br i1 %7, label %8, label %11

8:                                                ; preds = %2
  %9 = load ptr, ptr %5, align 8, !tbaa !4
  %10 = call zeroext i1 @lean_is_scalar(ptr noundef %9)
  br label %11

11:                                               ; preds = %8, %2
  %12 = phi i1 [ false, %2 ], [ %10, %8 ]
  %13 = zext i1 %12 to i32
  %14 = sext i32 %13 to i64
  %15 = call i64 @llvm.expect.i64(i64 %14, i64 1)
  %16 = icmp ne i64 %15, 0
  br i1 %16, label %17, label %21

17:                                               ; preds = %11
  %18 = load ptr, ptr %4, align 8, !tbaa !4
  %19 = load ptr, ptr %5, align 8, !tbaa !4
  %20 = icmp eq ptr %18, %19
  store i1 %20, ptr %3, align 1
  br label %25

21:                                               ; preds = %11
  %22 = load ptr, ptr %4, align 8, !tbaa !4
  %23 = load ptr, ptr %5, align 8, !tbaa !4
  %24 = call zeroext i1 @lean_nat_big_eq(ptr noundef %22, ptr noundef %23)
  store i1 %24, ptr %3, align 1
  br label %25

25:                                               ; preds = %21, %17
  %26 = load i1, ptr %3, align 1
  ret i1 %26
}

; Function Attrs: alwaysinline nounwind uwtable
define internal zeroext i1 @lean_nat_lt(ptr noundef %0, ptr noundef %1) #1 {
  %3 = alloca i1, align 1
  %4 = alloca ptr, align 8
  %5 = alloca ptr, align 8
  store ptr %0, ptr %4, align 8, !tbaa !4
  store ptr %1, ptr %5, align 8, !tbaa !4
  %6 = load ptr, ptr %4, align 8, !tbaa !4
  %7 = call zeroext i1 @lean_is_scalar(ptr noundef %6)
  br i1 %7, label %8, label %11

8:                                                ; preds = %2
  %9 = load ptr, ptr %5, align 8, !tbaa !4
  %10 = call zeroext i1 @lean_is_scalar(ptr noundef %9)
  br label %11

11:                                               ; preds = %8, %2
  %12 = phi i1 [ false, %2 ], [ %10, %8 ]
  %13 = zext i1 %12 to i32
  %14 = sext i32 %13 to i64
  %15 = call i64 @llvm.expect.i64(i64 %14, i64 1)
  %16 = icmp ne i64 %15, 0
  br i1 %16, label %17, label %21

17:                                               ; preds = %11
  %18 = load ptr, ptr %4, align 8, !tbaa !4
  %19 = load ptr, ptr %5, align 8, !tbaa !4
  %20 = icmp ult ptr %18, %19
  store i1 %20, ptr %3, align 1
  br label %25

21:                                               ; preds = %11
  %22 = load ptr, ptr %4, align 8, !tbaa !4
  %23 = load ptr, ptr %5, align 8, !tbaa !4
  %24 = call zeroext i1 @lean_nat_big_lt(ptr noundef %22, ptr noundef %23)
  store i1 %24, ptr %3, align 1
  br label %25

25:                                               ; preds = %21, %17
  %26 = load i1, ptr %3, align 1
  ret i1 %26
}

; Function Attrs: inlinehint nounwind uwtable
define internal ptr @lean_ctor_obj_cptr(ptr noundef %0) #0 {
  %2 = alloca ptr, align 8
  store ptr %0, ptr %2, align 8, !tbaa !4
  %3 = load ptr, ptr %2, align 8, !tbaa !4
  %4 = call ptr @lean_to_ctor(ptr noundef %3)
  %5 = getelementptr inbounds nuw %struct.lean_ctor_object, ptr %4, i32 0, i32 1
  %6 = getelementptr inbounds [0 x ptr], ptr %5, i64 0, i64 0
  ret ptr %6
}

; Function Attrs: alwaysinline nounwind uwtable
define internal zeroext i8 @lean_nat_dec_eq(ptr noundef %0, ptr noundef %1) #1 {
  %3 = alloca ptr, align 8
  %4 = alloca ptr, align 8
  store ptr %0, ptr %3, align 8, !tbaa !4
  store ptr %1, ptr %4, align 8, !tbaa !4
  %5 = load ptr, ptr %3, align 8, !tbaa !4
  %6 = load ptr, ptr %4, align 8, !tbaa !4
  %7 = call zeroext i1 @lean_nat_eq(ptr noundef %5, ptr noundef %6)
  %8 = zext i1 %7 to i8
  ret i8 %8
}

; Function Attrs: alwaysinline nounwind uwtable
define internal zeroext i8 @lean_nat_dec_lt(ptr noundef %0, ptr noundef %1) #1 {
  %3 = alloca ptr, align 8
  %4 = alloca ptr, align 8
  store ptr %0, ptr %3, align 8, !tbaa !4
  store ptr %1, ptr %4, align 8, !tbaa !4
  %5 = load ptr, ptr %3, align 8, !tbaa !4
  %6 = load ptr, ptr %4, align 8, !tbaa !4
  %7 = call zeroext i1 @lean_nat_lt(ptr noundef %5, ptr noundef %6)
  %8 = zext i1 %7 to i8
  ret i8 %8
}

; Function Attrs: inlinehint nounwind uwtable
define internal ptr @lean_ctor_get(ptr noundef %0, i32 noundef %1) #0 {
  %3 = alloca ptr, align 8
  %4 = alloca i32, align 4
  store ptr %0, ptr %3, align 8, !tbaa !4
  store i32 %1, ptr %4, align 4, !tbaa !10
  %5 = load ptr, ptr %3, align 8, !tbaa !4
  %6 = call ptr @lean_ctor_obj_cptr(ptr noundef %5)
  %7 = load i32, ptr %4, align 4, !tbaa !10
  %8 = zext i32 %7 to i64
  %9 = getelementptr inbounds nuw ptr, ptr %6, i64 %8
  %10 = load ptr, ptr %9, align 8, !tbaa !4
  ret ptr %10
}

; Function Attrs: nounwind uwtable
define zeroext i8 @l___private_Lake_Util_Version_0__Lake_ordSemVerCore____x40_Lake_Util_Version___hyg_328_(ptr noundef %0, ptr noundef %1) #2 {
  %3 = alloca i8, align 1
  %4 = alloca ptr, align 8
  %5 = alloca ptr, align 8
  %6 = alloca ptr, align 8
  %7 = alloca ptr, align 8
  %8 = alloca ptr, align 8
  %9 = alloca ptr, align 8
  %10 = alloca ptr, align 8
  %11 = alloca ptr, align 8
  %12 = alloca i8, align 1
  %13 = alloca i8, align 1
  %14 = alloca i8, align 1
  %15 = alloca i32, align 4
  %16 = alloca i8, align 1
  %17 = alloca i8, align 1
  %18 = alloca i8, align 1
  %19 = alloca i8, align 1
  %20 = alloca i8, align 1
  %21 = alloca i8, align 1
  %22 = alloca i8, align 1
  %23 = alloca i8, align 1
  %24 = alloca i8, align 1
  %25 = alloca i8, align 1
  store ptr %0, ptr %4, align 8, !tbaa !4
  store ptr %1, ptr %5, align 8, !tbaa !4
  br label %26

26:                                               ; preds = %2
  call void @llvm.lifetime.start.p0(i64 8, ptr %6) #7
  call void @llvm.lifetime.start.p0(i64 8, ptr %7) #7
  call void @llvm.lifetime.start.p0(i64 8, ptr %8) #7
  call void @llvm.lifetime.start.p0(i64 8, ptr %9) #7
  call void @llvm.lifetime.start.p0(i64 8, ptr %10) #7
  call void @llvm.lifetime.start.p0(i64 8, ptr %11) #7
  call void @llvm.lifetime.start.p0(i64 1, ptr %12) #7
  %27 = load ptr, ptr %4, align 8, !tbaa !4
  %28 = call ptr @lean_ctor_get(ptr noundef %27, i32 noundef 0)
  store ptr %28, ptr %6, align 8, !tbaa !4
  %29 = load ptr, ptr %4, align 8, !tbaa !4
  %30 = call ptr @lean_ctor_get(ptr noundef %29, i32 noundef 1)
  store ptr %30, ptr %7, align 8, !tbaa !4
  %31 = load ptr, ptr %4, align 8, !tbaa !4
  %32 = call ptr @lean_ctor_get(ptr noundef %31, i32 noundef 2)
  store ptr %32, ptr %8, align 8, !tbaa !4
  %33 = load ptr, ptr %5, align 8, !tbaa !4
  %34 = call ptr @lean_ctor_get(ptr noundef %33, i32 noundef 0)
  store ptr %34, ptr %9, align 8, !tbaa !4
  %35 = load ptr, ptr %5, align 8, !tbaa !4
  %36 = call ptr @lean_ctor_get(ptr noundef %35, i32 noundef 1)
  store ptr %36, ptr %10, align 8, !tbaa !4
  %37 = load ptr, ptr %5, align 8, !tbaa !4
  %38 = call ptr @lean_ctor_get(ptr noundef %37, i32 noundef 2)
  store ptr %38, ptr %11, align 8, !tbaa !4
  %39 = load ptr, ptr %6, align 8, !tbaa !4
  %40 = load ptr, ptr %9, align 8, !tbaa !4
  %41 = call zeroext i8 @lean_nat_dec_lt(ptr noundef %39, ptr noundef %40)
  store i8 %41, ptr %12, align 1, !tbaa !14
  %42 = load i8, ptr %12, align 1, !tbaa !14
  %43 = zext i8 %42 to i32
  %44 = icmp eq i32 %43, 0
  br i1 %44, label %45, label %97

45:                                               ; preds = %26
  call void @llvm.lifetime.start.p0(i64 1, ptr %13) #7
  %46 = load ptr, ptr %6, align 8, !tbaa !4
  %47 = load ptr, ptr %9, align 8, !tbaa !4
  %48 = call zeroext i8 @lean_nat_dec_eq(ptr noundef %46, ptr noundef %47)
  store i8 %48, ptr %13, align 1, !tbaa !14
  %49 = load i8, ptr %13, align 1, !tbaa !14
  %50 = zext i8 %49 to i32
  %51 = icmp eq i32 %50, 0
  br i1 %51, label %52, label %54

52:                                               ; preds = %45
  call void @llvm.lifetime.start.p0(i64 1, ptr %14) #7
  store i8 2, ptr %14, align 1, !tbaa !14
  %53 = load i8, ptr %14, align 1, !tbaa !14
  store i8 %53, ptr %3, align 1
  store i32 1, ptr %15, align 4
  call void @llvm.lifetime.end.p0(i64 1, ptr %14) #7
  br label %96

54:                                               ; preds = %45
  call void @llvm.lifetime.start.p0(i64 1, ptr %16) #7
  %55 = load ptr, ptr %7, align 8, !tbaa !4
  %56 = load ptr, ptr %10, align 8, !tbaa !4
  %57 = call zeroext i8 @lean_nat_dec_lt(ptr noundef %55, ptr noundef %56)
  store i8 %57, ptr %16, align 1, !tbaa !14
  %58 = load i8, ptr %16, align 1, !tbaa !14
  %59 = zext i8 %58 to i32
  %60 = icmp eq i32 %59, 0
  br i1 %60, label %61, label %93

61:                                               ; preds = %54
  call void @llvm.lifetime.start.p0(i64 1, ptr %17) #7
  %62 = load ptr, ptr %7, align 8, !tbaa !4
  %63 = load ptr, ptr %10, align 8, !tbaa !4
  %64 = call zeroext i8 @lean_nat_dec_eq(ptr noundef %62, ptr noundef %63)
  store i8 %64, ptr %17, align 1, !tbaa !14
  %65 = load i8, ptr %17, align 1, !tbaa !14
  %66 = zext i8 %65 to i32
  %67 = icmp eq i32 %66, 0
  br i1 %67, label %68, label %70

68:                                               ; preds = %61
  call void @llvm.lifetime.start.p0(i64 1, ptr %18) #7
  store i8 2, ptr %18, align 1, !tbaa !14
  %69 = load i8, ptr %18, align 1, !tbaa !14
  store i8 %69, ptr %3, align 1
  store i32 1, ptr %15, align 4
  call void @llvm.lifetime.end.p0(i64 1, ptr %18) #7
  br label %92

70:                                               ; preds = %61
  call void @llvm.lifetime.start.p0(i64 1, ptr %19) #7
  %71 = load ptr, ptr %8, align 8, !tbaa !4
  %72 = load ptr, ptr %11, align 8, !tbaa !4
  %73 = call zeroext i8 @lean_nat_dec_lt(ptr noundef %71, ptr noundef %72)
  store i8 %73, ptr %19, align 1, !tbaa !14
  %74 = load i8, ptr %19, align 1, !tbaa !14
  %75 = zext i8 %74 to i32
  %76 = icmp eq i32 %75, 0
  br i1 %76, label %77, label %89

77:                                               ; preds = %70
  call void @llvm.lifetime.start.p0(i64 1, ptr %20) #7
  %78 = load ptr, ptr %8, align 8, !tbaa !4
  %79 = load ptr, ptr %11, align 8, !tbaa !4
  %80 = call zeroext i8 @lean_nat_dec_eq(ptr noundef %78, ptr noundef %79)
  store i8 %80, ptr %20, align 1, !tbaa !14
  %81 = load i8, ptr %20, align 1, !tbaa !14
  %82 = zext i8 %81 to i32
  %83 = icmp eq i32 %82, 0
  br i1 %83, label %84, label %86

84:                                               ; preds = %77
  call void @llvm.lifetime.start.p0(i64 1, ptr %21) #7
  store i8 2, ptr %21, align 1, !tbaa !14
  %85 = load i8, ptr %21, align 1, !tbaa !14
  store i8 %85, ptr %3, align 1
  store i32 1, ptr %15, align 4
  call void @llvm.lifetime.end.p0(i64 1, ptr %21) #7
  br label %88

86:                                               ; preds = %77
  call void @llvm.lifetime.start.p0(i64 1, ptr %22) #7
  store i8 1, ptr %22, align 1, !tbaa !14
  %87 = load i8, ptr %22, align 1, !tbaa !14
  store i8 %87, ptr %3, align 1
  store i32 1, ptr %15, align 4
  call void @llvm.lifetime.end.p0(i64 1, ptr %22) #7
  br label %88

88:                                               ; preds = %86, %84
  call void @llvm.lifetime.end.p0(i64 1, ptr %20) #7
  br label %91

89:                                               ; preds = %70
  call void @llvm.lifetime.start.p0(i64 1, ptr %23) #7
  store i8 0, ptr %23, align 1, !tbaa !14
  %90 = load i8, ptr %23, align 1, !tbaa !14
  store i8 %90, ptr %3, align 1
  store i32 1, ptr %15, align 4
  call void @llvm.lifetime.end.p0(i64 1, ptr %23) #7
  br label %91

91:                                               ; preds = %89, %88
  call void @llvm.lifetime.end.p0(i64 1, ptr %19) #7
  br label %92

92:                                               ; preds = %91, %68
  call void @llvm.lifetime.end.p0(i64 1, ptr %17) #7
  br label %95

93:                                               ; preds = %54
  call void @llvm.lifetime.start.p0(i64 1, ptr %24) #7
  store i8 0, ptr %24, align 1, !tbaa !14
  %94 = load i8, ptr %24, align 1, !tbaa !14
  store i8 %94, ptr %3, align 1
  store i32 1, ptr %15, align 4
  call void @llvm.lifetime.end.p0(i64 1, ptr %24) #7
  br label %95

95:                                               ; preds = %93, %92
  call void @llvm.lifetime.end.p0(i64 1, ptr %16) #7
  br label %96

96:                                               ; preds = %95, %52
  call void @llvm.lifetime.end.p0(i64 1, ptr %13) #7
  br label %99

97:                                               ; preds = %26
  call void @llvm.lifetime.start.p0(i64 1, ptr %25) #7
  store i8 0, ptr %25, align 1, !tbaa !14
  %98 = load i8, ptr %25, align 1, !tbaa !14
  store i8 %98, ptr %3, align 1
  store i32 1, ptr %15, align 4
  call void @llvm.lifetime.end.p0(i64 1, ptr %25) #7
  br label %99

99:                                               ; preds = %97, %96
  call void @llvm.lifetime.end.p0(i64 1, ptr %12) #7
  call void @llvm.lifetime.end.p0(i64 8, ptr %11) #7
  call void @llvm.lifetime.end.p0(i64 8, ptr %10) #7
  call void @llvm.lifetime.end.p0(i64 8, ptr %9) #7
  call void @llvm.lifetime.end.p0(i64 8, ptr %8) #7
  call void @llvm.lifetime.end.p0(i64 8, ptr %7) #7
  call void @llvm.lifetime.end.p0(i64 8, ptr %6) #7
  %100 = load i8, ptr %3, align 1
  ret i8 %100
}