; Function Attrs: nounwind uwtable
define zeroext range(i8 0, 3) i8 @l___private_Lake_Util_Version_0__Lake_ordSemVerCore____x40_Lake_Util_Version___hyg_328_(ptr noundef readonly captures(none) %0, ptr noundef readonly captures(none) %1) local_unnamed_addr #0 {
  %3 = getelementptr inbounds nuw i8, ptr %0, i64 8
  %4 = load ptr, ptr %3, align 8, !tbaa !4
  %5 = getelementptr inbounds nuw i8, ptr %0, i64 16
  %6 = load ptr, ptr %5, align 8, !tbaa !4
  %7 = getelementptr inbounds nuw i8, ptr %0, i64 24
  %8 = load ptr, ptr %7, align 8, !tbaa !4
  %9 = getelementptr inbounds nuw i8, ptr %1, i64 8
  %10 = load ptr, ptr %9, align 8, !tbaa !4
  %11 = getelementptr inbounds nuw i8, ptr %1, i64 16
  %12 = load ptr, ptr %11, align 8, !tbaa !4
  %13 = getelementptr inbounds nuw i8, ptr %1, i64 24
  %14 = load ptr, ptr %13, align 8, !tbaa !4
  %15 = ptrtoint ptr %4 to i64
  %16 = and i64 %15, 1
  %.not = icmp eq i64 %16, 0
  br i1 %.not, label %lean_nat_lt.exit.thread50, label %17, !prof !15

17:                                               ; preds = %2
  %18 = ptrtoint ptr %10 to i64
  %19 = and i64 %18, 1
  %.not56 = icmp eq i64 %19, 0
  br i1 %.not56, label %lean_nat_lt.exit, label %lean_nat_lt.exit.thread, !prof !15

lean_nat_lt.exit:                                 ; preds = %17
  %20 = tail call zeroext i1 @lean_nat_big_lt(ptr noundef %4, ptr noundef %10) #5
  br i1 %20, label %44, label %lean_nat_eq.exit

lean_nat_lt.exit.thread50:                        ; preds = %2
  %21 = tail call zeroext i1 @lean_nat_big_lt(ptr noundef %4, ptr noundef %10) #5
  br i1 %21, label %44, label %lean_nat_eq.exit

lean_nat_lt.exit.thread:                          ; preds = %17
  %.not57 = icmp ult ptr %4, %10
  br i1 %.not57, label %44, label %.thread

.thread:                                          ; preds = %lean_nat_lt.exit.thread
  %22 = icmp eq ptr %4, %10
  br i1 %22, label %24, label %44

lean_nat_eq.exit:                                 ; preds = %lean_nat_lt.exit, %lean_nat_lt.exit.thread50
  %23 = tail call zeroext i1 @lean_nat_big_eq(ptr noundef %4, ptr noundef %10) #5
  br i1 %23, label %24, label %44

24:                                               ; preds = %.thread, %lean_nat_eq.exit
  %25 = ptrtoint ptr %6 to i64
  %26 = and i64 %25, 1
  %.not59 = icmp eq i64 %26, 0
  br i1 %.not59, label %lean_nat_lt.exit41.thread52, label %27, !prof !15

27:                                               ; preds = %24
  %28 = ptrtoint ptr %12 to i64
  %29 = and i64 %28, 1
  %.not60 = icmp eq i64 %29, 0
  br i1 %.not60, label %lean_nat_lt.exit41, label %lean_nat_lt.exit41.thread, !prof !15

lean_nat_lt.exit41:                               ; preds = %27
  %30 = tail call zeroext i1 @lean_nat_big_lt(ptr noundef %6, ptr noundef %12) #5
  br i1 %30, label %44, label %lean_nat_eq.exit33

lean_nat_lt.exit41.thread52:                      ; preds = %24
  %31 = tail call zeroext i1 @lean_nat_big_lt(ptr noundef %6, ptr noundef %12) #5
  br i1 %31, label %44, label %lean_nat_eq.exit33

lean_nat_lt.exit41.thread:                        ; preds = %27
  %.not61 = icmp ult ptr %6, %12
  br i1 %.not61, label %44, label %.thread47

.thread47:                                        ; preds = %lean_nat_lt.exit41.thread
  %32 = icmp eq ptr %6, %12
  br i1 %32, label %34, label %44

lean_nat_eq.exit33:                               ; preds = %lean_nat_lt.exit41, %lean_nat_lt.exit41.thread52
  %33 = tail call zeroext i1 @lean_nat_big_eq(ptr noundef %6, ptr noundef %12) #5
  br i1 %33, label %34, label %44

34:                                               ; preds = %.thread47, %lean_nat_eq.exit33
  %35 = ptrtoint ptr %8 to i64
  %36 = and i64 %35, 1
  %.not63 = icmp eq i64 %36, 0
  br i1 %.not63, label %lean_nat_lt.exit44.thread54, label %37, !prof !15

37:                                               ; preds = %34
  %38 = ptrtoint ptr %14 to i64
  %39 = and i64 %38, 1
  %.not64 = icmp eq i64 %39, 0
  br i1 %.not64, label %lean_nat_lt.exit44, label %lean_nat_lt.exit44.thread, !prof !15

lean_nat_lt.exit44:                               ; preds = %37
  %40 = tail call zeroext i1 @lean_nat_big_lt(ptr noundef %8, ptr noundef %14) #5
  br i1 %40, label %44, label %.critedge.i34

lean_nat_lt.exit44.thread54:                      ; preds = %34
  %41 = tail call zeroext i1 @lean_nat_big_lt(ptr noundef %8, ptr noundef %14) #5
  br i1 %41, label %44, label %.critedge.i34

lean_nat_lt.exit44.thread:                        ; preds = %37
  %.not65 = icmp ult ptr %8, %14
  br i1 %.not65, label %44, label %.thread49

.thread49:                                        ; preds = %lean_nat_lt.exit44.thread
  %42 = icmp eq ptr %8, %14
  br label %lean_nat_eq.exit36

.critedge.i34:                                    ; preds = %lean_nat_lt.exit44, %lean_nat_lt.exit44.thread54
  %43 = tail call zeroext i1 @lean_nat_big_eq(ptr noundef %8, ptr noundef %14) #5
  br label %lean_nat_eq.exit36

lean_nat_eq.exit36:                               ; preds = %.thread49, %.critedge.i34
  %.0.i35 = phi i1 [ %42, %.thread49 ], [ %43, %.critedge.i34 ]
  %. = select i1 %.0.i35, i8 1, i8 2
  br label %44

44:                                               ; preds = %.thread47, %.thread, %lean_nat_lt.exit44.thread54, %lean_nat_lt.exit41.thread52, %lean_nat_lt.exit.thread50, %lean_nat_lt.exit44.thread, %lean_nat_lt.exit41.thread, %lean_nat_lt.exit.thread, %lean_nat_lt.exit, %lean_nat_eq.exit, %lean_nat_lt.exit41, %lean_nat_eq.exit33, %lean_nat_lt.exit44, %lean_nat_eq.exit36
  %.5 = phi i8 [ 2, %lean_nat_eq.exit ], [ 2, %lean_nat_eq.exit33 ], [ %., %lean_nat_eq.exit36 ], [ 0, %lean_nat_lt.exit44 ], [ 0, %lean_nat_lt.exit41 ], [ 0, %lean_nat_lt.exit ], [ 0, %lean_nat_lt.exit.thread ], [ 0, %lean_nat_lt.exit41.thread ], [ 0, %lean_nat_lt.exit44.thread ], [ 0, %lean_nat_lt.exit.thread50 ], [ 0, %lean_nat_lt.exit41.thread52 ], [ 0, %lean_nat_lt.exit44.thread54 ], [ 2, %.thread ], [ 2, %.thread47 ]
  ret i8 %.5
}